; Function Attrs: mustprogress uwtable
define void @_ZN3gmx10TextWriter19writeFileFromStringERKNSt10filesystem7__cxx114pathERKNSt7__cxx1112basic_stringIcSt11char_traitsIcESaIcEEE(ptr noundef nonnull align 8 dereferenceable(40) %0, ptr noundef nonnull align 8 dereferenceable(32) %1) local_unnamed_addr #0 align 2 personality ptr @__gxx_personality_v0 {
  %3 = alloca %"class.gmx::TextWriter", align 8
  call void @llvm.lifetime.start.p0(i64 8, ptr nonnull %3) #16
  call void @_ZN3gmx10TextWriterC1ERKNSt10filesystem7__cxx114pathE(ptr noundef nonnull align 8 dereferenceable(8) %3, ptr noundef nonnull align 8 dereferenceable(40) %0)
  %4 = load ptr, ptr %3, align 8, !tbaa !4
  invoke void @_ZN3gmx10TextWriter4Impl18writeWrappedStringERKNSt7__cxx1112basic_stringIcSt11char_traitsIcESaIcEEE(ptr noundef nonnull align 8 dereferenceable(41) %4, ptr noundef nonnull align 8 dereferenceable(32) %1)
          to label %_ZN3gmx10TextWriter11writeStringERKNSt7__cxx1112basic_stringIcSt11char_traitsIcESaIcEEE.exit unwind label %10

_ZN3gmx10TextWriter11writeStringERKNSt7__cxx1112basic_stringIcSt11char_traitsIcESaIcEEE.exit: ; preds = %2
  %5 = load ptr, ptr %3, align 8, !tbaa !4
  %6 = load ptr, ptr %5, align 8, !tbaa !9
  %7 = load ptr, ptr %6, align 8, !tbaa !14
  %8 = getelementptr inbounds nuw i8, ptr %7, i64 24
  %9 = load ptr, ptr %8, align 8
  invoke void %9(ptr noundef nonnull align 8 dereferenceable(8) %6)
          to label %_ZN3gmx10TextWriter5closeEv.exit unwind label %10

_ZN3gmx10TextWriter5closeEv.exit:                 ; preds = %_ZN3gmx10TextWriter11writeStringERKNSt7__cxx1112basic_stringIcSt11char_traitsIcESaIcEEE.exit
  call void @_ZN3gmx10TextWriterD1Ev(ptr noundef nonnull align 8 dereferenceable(8) %3) #16
  call void @llvm.lifetime.end.p0(i64 8, ptr nonnull %3) #16
  ret void

10:                                               ; preds = %_ZN3gmx10TextWriter11writeStringERKNSt7__cxx1112basic_stringIcSt11char_traitsIcESaIcEEE.exit, %2
  %11 = landingpad { ptr, i32 }
          cleanup
  call void @_ZN3gmx10TextWriterD1Ev(ptr noundef nonnull align 8 dereferenceable(8) %3) #16
  call void @llvm.lifetime.end.p0(i64 8, ptr nonnull %3) #16
  resume { ptr, i32 } %11
}